; Function Attrs: nounwind uwtable
define ptr @SSL_get1_peer_certificate(ptr noundef %0) local_unnamed_addr #0 {
  %2 = icmp eq ptr %0, null
  br i1 %2, label %SSL_get0_peer_certificate.exit.thread, label %3

3:                                                ; preds = %1
  %4 = load i32, ptr %0, align 8, !tbaa !19
  %5 = icmp eq i32 %4, 0
  br i1 %5, label %.thread13.i, label %6

6:                                                ; preds = %3
  %7 = and i32 %4, 128
  %.not.i = icmp eq i32 %7, 0
  br i1 %.not.i, label %SSL_get0_peer_certificate.exit.thread, label %8

8:                                                ; preds = %6
  %9 = tail call ptr @ossl_quic_obj_get0_handshake_layer(ptr noundef nonnull %0) #20
  %10 = icmp eq ptr %9, null
  br i1 %10, label %SSL_get0_peer_certificate.exit.thread, label %.thread13.i

.thread13.i:                                      ; preds = %8, %3
  %11 = phi ptr [ %9, %8 ], [ %0, %3 ]
  %12 = getelementptr inbounds nuw i8, ptr %11, i64 2304
  %13 = load ptr, ptr %12, align 8, !tbaa !20
  %14 = icmp eq ptr %13, null
  br i1 %14, label %SSL_get0_peer_certificate.exit.thread, label %SSL_get0_peer_certificate.exit

SSL_get0_peer_certificate.exit:                   ; preds = %.thread13.i
  %15 = getelementptr inbounds nuw i8, ptr %13, i64 704
  %16 = load ptr, ptr %15, align 8, !tbaa !382
  %.not = icmp eq ptr %16, null
  br i1 %.not, label %SSL_get0_peer_certificate.exit.thread, label %17

17:                                               ; preds = %SSL_get0_peer_certificate.exit
  %18 = tail call i32 @X509_up_ref(ptr noundef nonnull %16) #20
  br label %SSL_get0_peer_certificate.exit.thread

SSL_get0_peer_certificate.exit.thread:            ; preds = %6, %1, %.thread13.i, %8, %17, %SSL_get0_peer_certificate.exit
  %.0.i6 = phi ptr [ %16, %17 ], [ null, %SSL_get0_peer_certificate.exit ], [ null, %8 ], [ null, %.thread13.i ], [ null, %1 ], [ null, %6 ]
  ret ptr %.0.i6
}